; Function Attrs: mustprogress nounwind uwtable
define dso_local void @_ZN4node6worker12SiblingGroupC2ERKNSt7__cxx1112basic_stringIcSt11char_traitsIcESaIcEEE(ptr noundef nonnull align 8 dereferenceable(152) %this, ptr noundef nonnull align 8 dereferenceable(32) %name) unnamed_addr #6 align 2 {
entry:
  tail call void @llvm.memset.p0.i64(ptr noundef nonnull align 8 dereferenceable(16) %this, i8 0, i64 16, i1 false)
  %name_ = getelementptr inbounds i8, ptr %this, i64 16
  tail call void @_ZNSt7__cxx1112basic_stringIcSt11char_traitsIcESaIcEEC1ERKS4_(ptr noundef nonnull align 8 dereferenceable(32) %name_, ptr noundef nonnull align 8 dereferenceable(32) %name) #26
  %group_mutex_ = getelementptr inbounds i8, ptr %this, i64 48
  %call.i.i = tail call noundef i32 @uv_rwlock_init(ptr noundef nonnull %group_mutex_) #26
  %cmp.not.i = icmp eq i32 %call.i.i, 0
  br i1 %cmp.not.i, label %_ZN4node9MutexBaseINS_17LibuvRwlockTraitsEEC2Ev.exit, label %do.body5.i

do.body5.i:                                       ; preds = %entry
  tail call void @_ZN4node6AssertERKNS_13AssertionInfoE(ptr noundef nonnull align 8 dereferenceable(24) @_ZZN4node9MutexBaseINS_17LibuvRwlockTraitsEEC1EvE4args) #26
  tail call void @abort() #27
  unreachable

_ZN4node9MutexBaseINS_17LibuvRwlockTraitsEEC2Ev.exit: ; preds = %entry
  %0 = getelementptr inbounds i8, ptr %this, i64 112
  store i32 0, ptr %0, align 8
  %_M_parent.i.i.i.i.i = getelementptr inbounds i8, ptr %this, i64 120
  store ptr null, ptr %_M_parent.i.i.i.i.i, align 8
  %_M_left.i.i.i.i.i = getelementptr inbounds i8, ptr %this, i64 128
  store ptr %0, ptr %_M_left.i.i.i.i.i, align 8
  %_M_right.i.i.i.i.i = getelementptr inbounds i8, ptr %this, i64 136
  store ptr %0, ptr %_M_right.i.i.i.i.i, align 8
  %_M_node_count.i.i.i.i.i = getelementptr inbounds i8, ptr %this, i64 144
  store i64 0, ptr %_M_node_count.i.i.i.i.i, align 8
  ret void
}